target datalayout = "e-m:e-p270:32:32-p271:32:32-p272:64:64-i64:64-i128:128-f80:128-n8:16:32:64-S128"
target triple = "x86_64-pc-linux-gnu"

%"class.std::__cxx11::basic_string" = type { %"struct.std::__cxx11::basic_string<char>::_Alloc_hider", i64, %union.anon }
%"struct.std::__cxx11::basic_string<char>::_Alloc_hider" = type { ptr }
%union.anon = type { i64, [8 x i8] }
%"class.std::basic_ios" = type { %"class.std::ios_base", ptr, i8, i8, ptr, ptr, ptr, ptr }
%"class.std::ios_base" = type { ptr, i64, i64, i32, i32, i32, ptr, %"struct.std::ios_base::_Words", [8 x %"struct.std::ios_base::_Words"], i32, ptr, %"class.std::locale" }
%"struct.std::ios_base::_Words" = type { ptr, i64 }
%"class.std::locale" = type { ptr }
%class.cmGraphVizWriter = type <{ %class.cmLinkItemGraphVisitor, %"class.std::__cxx11::basic_string", %class.cmGeneratedFileStream, %"class.std::map", %"class.std::map", %"class.std::__cxx11::basic_string", %"class.std::__cxx11::basic_string", %"class.std::__cxx11::basic_string", %"class.std::vector", ptr, i32, [4 x i8], %"class.std::map.22", i8, i8, i8, i8, i8, i8, i8, i8, i8, i8, i8, [5 x i8] }>
%class.cmLinkItemGraphVisitor = type { ptr, %"class.std::set", %"class.std::set.3" }
%"class.std::set" = type { %"class.std::_Rb_tree" }
%"class.std::_Rb_tree" = type { %"struct.std::_Rb_tree<std::__cxx11::basic_string<char>, std::__cxx11::basic_string<char>, std::_Identity<std::__cxx11::basic_string<char>>, std::less<std::__cxx11::basic_string<char>>>::_Rb_tree_impl" }
%"struct.std::_Rb_tree<std::__cxx11::basic_string<char>, std::__cxx11::basic_string<char>, std::_Identity<std::__cxx11::basic_string<char>>, std::less<std::__cxx11::basic_string<char>>>::_Rb_tree_impl" = type { %"struct.std::_Rb_tree_key_compare", %"struct.std::_Rb_tree_header" }
%"struct.std::_Rb_tree_key_compare" = type { %"struct.std::less" }
%"struct.std::less" = type { i8 }
%"struct.std::_Rb_tree_header" = type { %"struct.std::_Rb_tree_node_base", i64 }
%"struct.std::_Rb_tree_node_base" = type { i32, ptr, ptr, ptr }
%"class.std::set.3" = type { %"class.std::_Rb_tree.4" }
%"class.std::_Rb_tree.4" = type { %"struct.std::_Rb_tree<std::pair<std::__cxx11::basic_string<char>, std::__cxx11::basic_string<char>>, std::pair<std::__cxx11::basic_string<char>, std::__cxx11::basic_string<char>>, std::_Identity<std::pair<std::__cxx11::basic_string<char>, std::__cxx11::basic_string<char>>>, std::less<std::pair<std::__cxx11::basic_string<char>, std::__cxx11::basic_string<char>>>>::_Rb_tree_impl" }
%"struct.std::_Rb_tree<std::pair<std::__cxx11::basic_string<char>, std::__cxx11::basic_string<char>>, std::pair<std::__cxx11::basic_string<char>, std::__cxx11::basic_string<char>>, std::_Identity<std::pair<std::__cxx11::basic_string<char>, std::__cxx11::basic_string<char>>>, std::less<std::pair<std::__cxx11::basic_string<char>, std::__cxx11::basic_string<char>>>>::_Rb_tree_impl" = type { %"struct.std::_Rb_tree_key_compare.8", %"struct.std::_Rb_tree_header" }
%"struct.std::_Rb_tree_key_compare.8" = type { %"struct.std::less.9" }
%"struct.std::less.9" = type { i8 }
%class.cmGeneratedFileStream = type <{ %"class.std::basic_ofstream.base", %class.cmGeneratedFileStreamBase.base, [4 x i8], %"class.std::basic_ios" }>
%"class.std::basic_ofstream.base" = type { %"class.std::basic_ostream.base", %"class.std::basic_filebuf" }
%"class.std::basic_ostream.base" = type { ptr }
%"class.std::basic_filebuf" = type { %"class.std::basic_streambuf", %union.pthread_mutex_t, %"class.std::__basic_file", i32, %struct.__mbstate_t, %struct.__mbstate_t, %struct.__mbstate_t, ptr, i64, i8, i8, i8, i8, ptr, ptr, i8, ptr, ptr, i64, ptr, ptr }
%"class.std::basic_streambuf" = type { ptr, ptr, ptr, ptr, ptr, ptr, ptr, %"class.std::locale" }
%union.pthread_mutex_t = type { %struct.__pthread_mutex_s }
%struct.__pthread_mutex_s = type { i32, i32, i32, i32, i32, i16, i16, %struct.__pthread_internal_list }
%struct.__pthread_internal_list = type { ptr, ptr }
%"class.std::__basic_file" = type <{ ptr, i8, [7 x i8] }>
%struct.__mbstate_t = type { i32, %union.anon.11 }
%union.anon.11 = type { i32 }
%class.cmGeneratedFileStreamBase.base = type <{ %"class.std::__cxx11::basic_string", %"class.std::__cxx11::basic_string", %"class.std::__cxx11::basic_string", i8, i8, i8, i8 }>
%"class.std::map" = type { %"class.std::_Rb_tree.12" }
%"class.std::_Rb_tree.12" = type { %"struct.std::_Rb_tree<cmLinkItem, std::pair<const cmLinkItem, std::vector<cmGraphVizWriter::Connection>>, std::_Select1st<std::pair<const cmLinkItem, std::vector<cmGraphVizWriter::Connection>>>, std::less<cmLinkItem>>::_Rb_tree_impl" }
%"struct.std::_Rb_tree<cmLinkItem, std::pair<const cmLinkItem, std::vector<cmGraphVizWriter::Connection>>, std::_Select1st<std::pair<const cmLinkItem, std::vector<cmGraphVizWriter::Connection>>>, std::less<cmLinkItem>>::_Rb_tree_impl" = type { %"struct.std::_Rb_tree_key_compare.16", %"struct.std::_Rb_tree_header" }
%"struct.std::_Rb_tree_key_compare.16" = type { %"struct.std::less.17" }
%"struct.std::less.17" = type { i8 }
%"class.std::vector" = type { %"struct.std::_Vector_base" }
%"struct.std::_Vector_base" = type { %"struct.std::_Vector_base<cmsys::RegularExpression, std::allocator<cmsys::RegularExpression>>::_Vector_impl" }
%"struct.std::_Vector_base<cmsys::RegularExpression, std::allocator<cmsys::RegularExpression>>::_Vector_impl" = type { %"struct.std::_Vector_base<cmsys::RegularExpression, std::allocator<cmsys::RegularExpression>>::_Vector_impl_data" }
%"struct.std::_Vector_base<cmsys::RegularExpression, std::allocator<cmsys::RegularExpression>>::_Vector_impl_data" = type { ptr, ptr, ptr }
%"class.std::map.22" = type { %"class.std::_Rb_tree.23" }
%"class.std::_Rb_tree.23" = type { %"struct.std::_Rb_tree<std::__cxx11::basic_string<char>, std::pair<const std::__cxx11::basic_string<char>, std::__cxx11::basic_string<char>>, std::_Select1st<std::pair<const std::__cxx11::basic_string<char>, std::__cxx11::basic_string<char>>>, std::less<std::__cxx11::basic_string<char>>>::_Rb_tree_impl" }
%"struct.std::_Rb_tree<std::__cxx11::basic_string<char>, std::pair<const std::__cxx11::basic_string<char>, std::__cxx11::basic_string<char>>, std::_Select1st<std::pair<const std::__cxx11::basic_string<char>, std::__cxx11::basic_string<char>>>, std::less<std::__cxx11::basic_string<char>>>::_Rb_tree_impl" = type { %"struct.std::_Rb_tree_key_compare", %"struct.std::_Rb_tree_header" }

@.str.54 = private unnamed_addr constant [6 x i8] c"    \22\00", align 1
@.str.58 = private unnamed_addr constant [7 x i8] c"\22 -> \22\00", align 1
@.str.59 = private unnamed_addr constant [3 x i8] c"\22 \00", align 1
@.str.60 = private unnamed_addr constant [5 x i8] c" // \00", align 1
@.str.61 = private unnamed_addr constant [5 x i8] c" -> \00", align 1

; Function Attrs: mustprogress uwtable
define dso_local void @_ZN16cmGraphVizWriter15WriteConnectionER21cmGeneratedFileStreamRK10cmLinkItemS4_RKNSt7__cxx1112basic_stringIcSt11char_traitsIcESaIcEEE(ptr noundef nonnull align 8 dereferenceable(1043) %0, ptr noundef nonnull align 8 dereferenceable(348) %1, ptr noundef nonnull align 8 dereferenceable(104) %2, ptr noundef nonnull align 8 dereferenceable(104) %3, ptr noundef nonnull align 8 dereferenceable(32) %4) #4 align 2 {
  %6 = alloca ptr, align 8
  %7 = alloca ptr, align 8
  %8 = alloca ptr, align 8
  %9 = alloca ptr, align 8
  %10 = alloca ptr, align 8
  %11 = alloca ptr, align 8
  %12 = alloca ptr, align 8
  store ptr %0, ptr %6, align 8
  store ptr %1, ptr %7, align 8
  store ptr %2, ptr %8, align 8
  store ptr %3, ptr %9, align 8
  store ptr %4, ptr %10, align 8
  %13 = load ptr, ptr %6, align 8
  %14 = load ptr, ptr %8, align 8
  %15 = call noundef nonnull align 8 dereferenceable(32) ptr @_ZNK10cmLinkItem5AsStrB5cxx11Ev(ptr noundef nonnull align 8 dereferenceable(104) %14)
  store ptr %15, ptr %11, align 8
  %16 = load ptr, ptr %9, align 8
  %17 = call noundef nonnull align 8 dereferenceable(32) ptr @_ZNK10cmLinkItem5AsStrB5cxx11Ev(ptr noundef nonnull align 8 dereferenceable(104) %16)
  store ptr %17, ptr %12, align 8
  %18 = load ptr, ptr %7, align 8
  %19 = call noundef nonnull align 8 dereferenceable(8) ptr @_ZStlsISt11char_traitsIcEERSt13basic_ostreamIcT_ES5_PKc(ptr noundef nonnull align 8 dereferenceable(8) %18, ptr noundef @.str.54)
  %20 = getelementptr inbounds %class.cmGraphVizWriter, ptr %13, i32 0, i32 12
  %21 = load ptr, ptr %11, align 8
  %22 = call noundef nonnull align 8 dereferenceable(32) ptr @_ZNSt3mapINSt7__cxx1112basic_stringIcSt11char_traitsIcESaIcEEES5_St4lessIS5_ESaISt4pairIKS5_S5_EEEixERS9_(ptr noundef nonnull align 8 dereferenceable(48) %20, ptr noundef nonnull align 8 dereferenceable(32) %21)
  %23 = call noundef nonnull align 8 dereferenceable(8) ptr @_ZStlsIcSt11char_traitsIcESaIcEERSt13basic_ostreamIT_T0_ES7_RKNSt7__cxx1112basic_stringIS4_S5_T1_EE(ptr noundef nonnull align 8 dereferenceable(8) %19, ptr noundef nonnull align 8 dereferenceable(32) %22)
  %24 = call noundef nonnull align 8 dereferenceable(8) ptr @_ZStlsISt11char_traitsIcEERSt13basic_ostreamIcT_ES5_PKc(ptr noundef nonnull align 8 dereferenceable(8) %23, ptr noundef @.str.58)
  %25 = getelementptr inbounds %class.cmGraphVizWriter, ptr %13, i32 0, i32 12
  %26 = load ptr, ptr %12, align 8
  %27 = call noundef nonnull align 8 dereferenceable(32) ptr @_ZNSt3mapINSt7__cxx1112basic_stringIcSt11char_traitsIcESaIcEEES5_St4lessIS5_ESaISt4pairIKS5_S5_EEEixERS9_(ptr noundef nonnull align 8 dereferenceable(48) %25, ptr noundef nonnull align 8 dereferenceable(32) %26)
  %28 = call noundef nonnull align 8 dereferenceable(8) ptr @_ZStlsIcSt11char_traitsIcESaIcEERSt13basic_ostreamIT_T0_ES7_RKNSt7__cxx1112basic_stringIS4_S5_T1_EE(ptr noundef nonnull align 8 dereferenceable(8) %24, ptr noundef nonnull align 8 dereferenceable(32) %27)
  %29 = call noundef nonnull align 8 dereferenceable(8) ptr @_ZStlsISt11char_traitsIcEERSt13basic_ostreamIcT_ES5_PKc(ptr noundef nonnull align 8 dereferenceable(8) %28, ptr noundef @.str.59)
  %30 = load ptr, ptr %10, align 8
  %31 = call noundef nonnull align 8 dereferenceable(8) ptr @_ZStlsIcSt11char_traitsIcESaIcEERSt13basic_ostreamIT_T0_ES7_RKNSt7__cxx1112basic_stringIS4_S5_T1_EE(ptr noundef nonnull align 8 dereferenceable(8) %29, ptr noundef nonnull align 8 dereferenceable(32) %30)
  %32 = call noundef nonnull align 8 dereferenceable(8) ptr @_ZStlsISt11char_traitsIcEERSt13basic_ostreamIcT_ES5_PKc(ptr noundef nonnull align 8 dereferenceable(8) %31, ptr noundef @.str.60)
  %33 = load ptr, ptr %11, align 8
  %34 = call noundef nonnull align 8 dereferenceable(8) ptr @_ZStlsIcSt11char_traitsIcESaIcEERSt13basic_ostreamIT_T0_ES7_RKNSt7__cxx1112basic_stringIS4_S5_T1_EE(ptr noundef nonnull align 8 dereferenceable(8) %32, ptr noundef nonnull align 8 dereferenceable(32) %33)
  %35 = call noundef nonnull align 8 dereferenceable(8) ptr @_ZStlsISt11char_traitsIcEERSt13basic_ostreamIcT_ES5_PKc(ptr noundef nonnull align 8 dereferenceable(8) %34, ptr noundef @.str.61)
  %36 = load ptr, ptr %12, align 8
  %37 = call noundef nonnull align 8 dereferenceable(8) ptr @_ZStlsIcSt11char_traitsIcESaIcEERSt13basic_ostreamIT_T0_ES7_RKNSt7__cxx1112basic_stringIS4_S5_T1_EE(ptr noundef nonnull align 8 dereferenceable(8) %35, ptr noundef nonnull align 8 dereferenceable(32) %36)
  %38 = call noundef nonnull align 8 dereferenceable(8) ptr @_ZStlsISt11char_traitsIcEERSt13basic_ostreamIcT_ES5_c(ptr noundef nonnull align 8 dereferenceable(8) %37, i8 noundef signext 10)
  ret void
}